; Function Attrs: mustprogress uwtable
define dso_local noundef zeroext i1 @_Z16parse_string_argPKcRNSt7__cxx1112basic_stringIcSt11char_traitsIcESaIcEEE(ptr noundef %0, ptr noundef nonnull align 8 dereferenceable(32) %1) local_unnamed_addr #3 {
  %3 = getelementptr inbounds nuw i8, ptr %1, i64 8
  %4 = load i64, ptr %3, align 8, !tbaa !4
  %5 = tail call noundef i64 @strlen(ptr noundef nonnull dereferenceable(1) %0) #14
  %6 = tail call noundef nonnull align 8 dereferenceable(32) ptr @_ZNSt7__cxx1112basic_stringIcSt11char_traitsIcESaIcEE10_M_replaceEmmPKcm(ptr noundef nonnull align 8 dereferenceable(32) %1, i64 noundef 0, i64 noundef %4, ptr noundef nonnull %0, i64 noundef %5)
  %7 = load i64, ptr %3, align 8, !tbaa !4
  %8 = icmp eq i64 %7, 0
  br i1 %8, label %12, label %9

9:                                                ; preds = %2
  %10 = tail call noundef i32 @_ZNKSt7__cxx1112basic_stringIcSt11char_traitsIcESaIcEE7compareEmmPKc(ptr noundef nonnull align 8 dereferenceable(32) %1, i64 noundef 0, i64 noundef 2, ptr noundef nonnull @.str)
  %11 = icmp ne i32 %10, 0
  br label %12

12:                                               ; preds = %9, %2
  %13 = phi i1 [ false, %2 ], [ %11, %9 ]
  ret i1 %13
}